; Function Attrs: mustprogress uwtable
define dso_local void @_ZN3igl3xml17serialization_xml16replaceSubStringERNSt7__cxx1112basic_stringIcSt11char_traitsIcESaIcEEERKS7_SA_(ptr noundef nonnull align 8 dereferenceable(32) %0, ptr noundef nonnull readonly align 8 captures(none) dereferenceable(32) %1, ptr noundef nonnull readonly align 8 captures(none) dereferenceable(32) %2) local_unnamed_addr #2 {
  %4 = getelementptr inbounds nuw i8, ptr %1, i64 8
  %5 = load ptr, ptr %1, align 8, !tbaa !32
  %6 = load i64, ptr %4, align 8, !tbaa !40
  %7 = tail call noundef i64 @_ZNKSt7__cxx1112basic_stringIcSt11char_traitsIcESaIcEE4findEPKcmm(ptr noundef nonnull align 8 dereferenceable(32) %0, ptr noundef %5, i64 noundef 0, i64 noundef %6) #26
  %.not11 = icmp eq i64 %7, -1
  br i1 %.not11, label %._crit_edge, label %.lr.ph

.lr.ph:                                           ; preds = %3
  %8 = getelementptr inbounds nuw i8, ptr %0, i64 8
  %9 = getelementptr inbounds nuw i8, ptr %2, i64 8
  br label %10

10:                                               ; preds = %.lr.ph, %_ZNSt7__cxx1112basic_stringIcSt11char_traitsIcESaIcEE7replaceEmmRKS4_.exit
  %11 = phi i64 [ %7, %.lr.ph ], [ %24, %_ZNSt7__cxx1112basic_stringIcSt11char_traitsIcESaIcEE7replaceEmmRKS4_.exit ]
  %12 = load i64, ptr %8, align 8, !tbaa !40
  %13 = icmp ugt i64 %11, %12
  br i1 %13, label %14, label %_ZNSt7__cxx1112basic_stringIcSt11char_traitsIcESaIcEE7replaceEmmRKS4_.exit

14:                                               ; preds = %10
  tail call void (ptr, ...) @_ZSt24__throw_out_of_range_fmtPKcz(ptr noundef nonnull @.str.15, ptr noundef nonnull @.str.14, i64 noundef %11, i64 noundef %12) #27
  unreachable

_ZNSt7__cxx1112basic_stringIcSt11char_traitsIcESaIcEE7replaceEmmRKS4_.exit: ; preds = %10
  %15 = load i64, ptr %4, align 8, !tbaa !40
  %16 = load i64, ptr %9, align 8, !tbaa !40
  %17 = load ptr, ptr %2, align 8, !tbaa !32
  %18 = sub nuw i64 %12, %11
  %spec.select.i.i.i = tail call noundef i64 @llvm.umin.i64(i64 %15, i64 %18)
  %19 = tail call noundef nonnull align 8 dereferenceable(32) ptr @_ZNSt7__cxx1112basic_stringIcSt11char_traitsIcESaIcEE10_M_replaceEmmPKcm(ptr noundef nonnull align 8 dereferenceable(32) %0, i64 noundef %11, i64 noundef %spec.select.i.i.i, ptr noundef %17, i64 noundef %16)
  %20 = load i64, ptr %9, align 8, !tbaa !40
  %21 = add i64 %20, %11
  %22 = load ptr, ptr %1, align 8, !tbaa !32
  %23 = load i64, ptr %4, align 8, !tbaa !40
  %24 = tail call noundef i64 @_ZNKSt7__cxx1112basic_stringIcSt11char_traitsIcESaIcEE4findEPKcmm(ptr noundef nonnull align 8 dereferenceable(32) %0, ptr noundef %22, i64 noundef %21, i64 noundef %23) #26
  %.not = icmp eq i64 %24, -1
  br i1 %.not, label %._crit_edge, label %10, !llvm.loop !42

._crit_edge:                                      ; preds = %_ZNSt7__cxx1112basic_stringIcSt11char_traitsIcESaIcEE7replaceEmmRKS4_.exit, %3
  ret void
}